target datalayout = "e-m:e-p270:32:32-p271:32:32-p272:64:64-i64:64-i128:128-f80:128-n8:16:32:64-S128"
target triple = "x86_64-unknown-linux-gnu"

%"struct.node::AssertionInfo" = type { ptr, ptr, ptr }
%"struct.node::crypto::EnginePointer" = type <{ ptr, i8, [7 x i8] }>
%"struct.node::crypto::ClearErrorOnReturn" = type { i8 }

@_ZZN4node6crypto13EnginePointer5resetEP9engine_stbE4args = linkonce_odr dso_local constant %"struct.node::AssertionInfo" { ptr @.str.113, ptr @.str.114, ptr @.str.115 }, comdat, align 8
@_ZZN4node6crypto13EnginePointer5resetEP9engine_stbE4args_0 = linkonce_odr dso_local constant %"struct.node::AssertionInfo" { ptr @.str.116, ptr @.str.117, ptr @.str.115 }, comdat, align 8

; Function Attrs: mustprogress nounwind uwtable
define linkonce_odr dso_local void @_ZN4node6crypto13EnginePointer5resetEP9engine_stb(ptr noundef nonnull align 8 dereferenceable(9) %this, ptr noundef %engine_, i1 noundef zeroext %finish_on_exit_) #4 comdat align 2 {
entry:
  %this.addr = alloca ptr, align 8
  %engine_.addr = alloca ptr, align 8
  %finish_on_exit_.addr = alloca i8, align 1
  store ptr %this, ptr %this.addr, align 8
  store ptr %engine_, ptr %engine_.addr, align 8
  %frombool = zext i1 %finish_on_exit_ to i8
  store i8 %frombool, ptr %finish_on_exit_.addr, align 1
  %this1 = load ptr, ptr %this.addr, align 8
  %engine = getelementptr inbounds %"struct.node::crypto::EnginePointer", ptr %this1, i32 0, i32 0
  %0 = load ptr, ptr %engine, align 8
  %cmp = icmp ne ptr %0, null
  br i1 %cmp, label %if.then, label %if.end23

if.then:                                          ; preds = %entry
  %finish_on_exit = getelementptr inbounds %"struct.node::crypto::EnginePointer", ptr %this1, i32 0, i32 1
  %1 = load i8, ptr %finish_on_exit, align 8
  %tobool = trunc i8 %1 to i1
  br i1 %tobool, label %if.then2, label %if.else

if.then2:                                         ; preds = %if.then
  br label %do.body

do.body:                                          ; preds = %if.then2
  %engine3 = getelementptr inbounds %"struct.node::crypto::EnginePointer", ptr %this1, i32 0, i32 0
  %2 = load ptr, ptr %engine3, align 8
  %call = call i32 @ENGINE_finish(ptr noundef %2)
  %cmp4 = icmp eq i32 %call, 1
  %lnot = xor i1 %cmp4, true
  %lnot5 = xor i1 %lnot, true
  %lnot6 = xor i1 %lnot5, true
  br i1 %lnot6, label %if.then7, label %if.end

if.then7:                                         ; preds = %do.body
  br label %do.body8

do.body8:                                         ; preds = %if.then7
  call void @_ZN4node6AssertERKNS_13AssertionInfoE(ptr noundef nonnull align 8 dereferenceable(24) @_ZZN4node6crypto13EnginePointer5resetEP9engine_stbE4args)
  call void @abort() #15
  unreachable

do.end:                                           ; No predecessors!
  br label %if.end

if.end:                                           ; preds = %do.end, %do.body
  br label %do.end9

do.end9:                                          ; preds = %if.end
  br label %if.end22

if.else:                                          ; preds = %if.then
  br label %do.body10

do.body10:                                        ; preds = %if.else
  %engine11 = getelementptr inbounds %"struct.node::crypto::EnginePointer", ptr %this1, i32 0, i32 0
  %3 = load ptr, ptr %engine11, align 8
  %call12 = call i32 @ENGINE_free(ptr noundef %3)
  %cmp13 = icmp eq i32 %call12, 1
  %lnot14 = xor i1 %cmp13, true
  %lnot15 = xor i1 %lnot14, true
  %lnot16 = xor i1 %lnot15, true
  br i1 %lnot16, label %if.then17, label %if.end20

if.then17:                                        ; preds = %do.body10
  br label %do.body18

do.body18:                                        ; preds = %if.then17
  call void @_ZN4node6AssertERKNS_13AssertionInfoE(ptr noundef nonnull align 8 dereferenceable(24) @_ZZN4node6crypto13EnginePointer5resetEP9engine_stbE4args_0)
  call void @abort() #15
  unreachable

do.end19:                                         ; No predecessors!
  br label %if.end20

if.end20:                                         ; preds = %do.end19, %do.body10
  br label %do.end21

do.end21:                                         ; preds = %if.end20
  br label %if.end22

if.end22:                                         ; preds = %do.end21, %do.end9
  br label %if.end23

if.end23:                                         ; preds = %if.end22, %entry
  %4 = load ptr, ptr %engine_.addr, align 8
  %engine24 = getelementptr inbounds %"struct.node::crypto::EnginePointer", ptr %this1, i32 0, i32 0
  store ptr %4, ptr %engine24, align 8
  %5 = load i8, ptr %finish_on_exit_.addr, align 1
  %tobool25 = trunc i8 %5 to i1
  %finish_on_exit26 = getelementptr inbounds %"struct.node::crypto::EnginePointer", ptr %this1, i32 0, i32 1
  %frombool27 = zext i1 %tobool25 to i8
  store i8 %frombool27, ptr %finish_on_exit26, align 8
  ret void
}

; Function Attrs: mustprogress nounwind uwtable
define linkonce_odr dso_local void @_ZN4node6crypto18ClearErrorOnReturnD2Ev(ptr noundef nonnull align 1 dereferenceable(1) %this) unnamed_addr #4 comdat align 2 {
entry:
  %this.addr = alloca ptr, align 8
  store ptr %this, ptr %this.addr, align 8
  call void @ERR_clear_error()
  ret void
}

; Function Attrs: mustprogress nounwind uwtable
define linkonce_odr dso_local void @_ZN4node6crypto13EnginePointerD2Ev(ptr noundef nonnull align 8 dereferenceable(9) %this) unnamed_addr #4 comdat align 2 {
entry:
  %this.addr = alloca ptr, align 8
  store ptr %this, ptr %this.addr, align 8
  %this1 = load ptr, ptr %this.addr, align 8
  call void @_ZN4node6crypto13EnginePointer5resetEP9engine_stb(ptr noundef nonnull align 8 dereferenceable(9) %this1, ptr noundef null, i1 noundef zeroext false)
  ret void
}

; Function Attrs: mustprogress nounwind uwtable
define linkonce_odr dso_local noundef ptr @_ZN4node6crypto13EnginePointer3getEv(ptr noundef nonnull align 8 dereferenceable(9) %this) #4 comdat align 2 {
entry:
  %this.addr = alloca ptr, align 8
  store ptr %this, ptr %this.addr, align 8
  %this1 = load ptr, ptr %this.addr, align 8
  %engine = getelementptr inbounds %"struct.node::crypto::EnginePointer", ptr %this1, i32 0, i32 0
  %0 = load ptr, ptr %engine, align 8
  ret ptr %0
}

; Function Attrs: mustprogress nounwind uwtable
define linkonce_odr dso_local noundef zeroext i1 @_ZNK4node6crypto13EnginePointercvbEv(ptr noundef nonnull align 8 dereferenceable(9) %this) #4 comdat align 2 {
entry:
  %this.addr = alloca ptr, align 8
  store ptr %this, ptr %this.addr, align 8
  %this1 = load ptr, ptr %this.addr, align 8
  %engine = getelementptr inbounds %"struct.node::crypto::EnginePointer", ptr %this1, i32 0, i32 0
  %0 = load ptr, ptr %engine, align 8
  %cmp = icmp ne ptr %0, null
  ret i1 %cmp
}

; Function Attrs: mustprogress nounwind uwtable
define dso_local noundef zeroext i1 @_ZN4node6crypto9SetEngineEPKcjPNS0_16CryptoErrorStoreE(ptr noundef %id, i32 noundef %flags, ptr noundef %errors) #4 {
entry:
  %retval = alloca i1, align 1
  %id.addr = alloca ptr, align 8
  %flags.addr = alloca i32, align 4
  %errors.addr = alloca ptr, align 8
  %clear_error_on_return = alloca %"struct.node::crypto::ClearErrorOnReturn", align 1
  %engine = alloca %"struct.node::crypto::EnginePointer", align 8
  %cleanup.dest.slot = alloca i32, align 4
  store ptr %id, ptr %id.addr, align 8
  store i32 %flags, ptr %flags.addr, align 4
  store ptr %errors, ptr %errors.addr, align 8
  %0 = load ptr, ptr %id.addr, align 8
  %1 = load ptr, ptr %errors.addr, align 8
  call void @_ZN4node6crypto14LoadEngineByIdEPKcPNS0_16CryptoErrorStoreE(ptr sret(%"struct.node::crypto::EnginePointer") align 8 %engine, ptr noundef %0, ptr noundef %1)
  %call = call noundef zeroext i1 @_ZNK4node6crypto13EnginePointercvbEv(ptr noundef nonnull align 8 dereferenceable(9) %engine)
  br i1 %call, label %if.end, label %if.then

if.then:                                          ; preds = %entry
  store i1 false, ptr %retval, align 1
  store i32 1, ptr %cleanup.dest.slot, align 4
  br label %cleanup

if.end:                                           ; preds = %entry
  %call1 = call noundef ptr @_ZN4node6crypto13EnginePointer3getEv(ptr noundef nonnull align 8 dereferenceable(9) %engine)
  %2 = load i32, ptr %flags.addr, align 4
  %call2 = call i32 @ENGINE_set_default(ptr noundef %call1, i32 noundef %2)
  %tobool = icmp ne i32 %call2, 0
  br i1 %tobool, label %if.end6, label %if.then3

if.then3:                                         ; preds = %if.end
  %3 = load ptr, ptr %errors.addr, align 8
  %cmp = icmp ne ptr %3, null
  br i1 %cmp, label %if.then4, label %if.end5

if.then4:                                         ; preds = %if.then3
  %4 = load ptr, ptr %errors.addr, align 8
  call void @_ZN4node6crypto16CryptoErrorStore7CaptureEv(ptr noundef nonnull align 8 dereferenceable(32) %4)
  br label %if.end5

if.end5:                                          ; preds = %if.then4, %if.then3
  store i1 false, ptr %retval, align 1
  store i32 1, ptr %cleanup.dest.slot, align 4
  br label %cleanup

if.end6:                                          ; preds = %if.end
  store i1 true, ptr %retval, align 1
  store i32 1, ptr %cleanup.dest.slot, align 4
  br label %cleanup

cleanup:                                          ; preds = %if.end6, %if.end5, %if.then
  call void @_ZN4node6crypto13EnginePointerD2Ev(ptr noundef nonnull align 8 dereferenceable(9) %engine) #3
  call void @_ZN4node6crypto18ClearErrorOnReturnD2Ev(ptr noundef nonnull align 1 dereferenceable(1) %clear_error_on_return) #3
  %5 = load i1, ptr %retval, align 1
  ret i1 %5
}