; Function Attrs: mustprogress nounwind uwtable
define dso_local noundef zeroext i1 @_ZN4node6crypto9SetEngineEPKcjPNS0_16CryptoErrorStoreE(ptr noundef %id, i32 noundef %flags, ptr noundef %errors) local_unnamed_addr #4 {
entry:
  %engine = alloca %"struct.node::crypto::EnginePointer", align 8
  call void @_ZN4node6crypto14LoadEngineByIdEPKcPNS0_16CryptoErrorStoreE(ptr nonnull sret(%"struct.node::crypto::EnginePointer") align 8 %engine, ptr noundef %id, ptr noundef %errors)
  %0 = load ptr, ptr %engine, align 8
  %cmp.i.not = icmp eq ptr %0, null
  br i1 %cmp.i.not, label %_ZN4node6crypto13EnginePointerD2Ev.exit, label %if.end

if.end:                                           ; preds = %entry
  %call2 = call i32 @ENGINE_set_default(ptr noundef nonnull %0, i32 noundef %flags) #25
  %tobool.not = icmp ne i32 %call2, 0
  %cmp.not = icmp eq ptr %errors, null
  %or.cond = or i1 %cmp.not, %tobool.not
  br i1 %or.cond, label %cleanup, label %if.then4

if.then4:                                         ; preds = %if.end
  call void @_ZN4node6crypto16CryptoErrorStore7CaptureEv(ptr noundef nonnull align 8 dereferenceable(32) %errors)
  br label %cleanup

cleanup:                                          ; preds = %if.end, %if.then4
  %.pr = load ptr, ptr %engine, align 8
  %cmp.not.i.i = icmp eq ptr %.pr, null
  br i1 %cmp.not.i.i, label %_ZN4node6crypto13EnginePointerD2Ev.exit, label %if.then.i.i

if.then.i.i:                                      ; preds = %cleanup
  %finish_on_exit.i.i = getelementptr inbounds i8, ptr %engine, i64 8
  %1 = load i8, ptr %finish_on_exit.i.i, align 8
  %2 = and i8 %1, 1
  %tobool.not.i.i = icmp eq i8 %2, 0
  br i1 %tobool.not.i.i, label %do.body10.i.i, label %do.body.i.i

do.body.i.i:                                      ; preds = %if.then.i.i
  %call.i.i = call i32 @ENGINE_finish(ptr noundef nonnull %.pr) #25
  %cmp4.not.i.i = icmp eq i32 %call.i.i, 1
  br i1 %cmp4.not.i.i, label %_ZN4node6crypto13EnginePointerD2Ev.exit, label %do.body8.i.i

do.body8.i.i:                                     ; preds = %do.body.i.i
  call void @_ZN4node6AssertERKNS_13AssertionInfoE(ptr noundef nonnull align 8 dereferenceable(24) @_ZZN4node6crypto13EnginePointer5resetEP9engine_stbE4args) #25
  call void @abort() #27
  unreachable

do.body10.i.i:                                    ; preds = %if.then.i.i
  %call12.i.i = call i32 @ENGINE_free(ptr noundef nonnull %.pr) #25
  %cmp13.not.i.i = icmp eq i32 %call12.i.i, 1
  br i1 %cmp13.not.i.i, label %_ZN4node6crypto13EnginePointerD2Ev.exit, label %do.body18.i.i

do.body18.i.i:                                    ; preds = %do.body10.i.i
  call void @_ZN4node6AssertERKNS_13AssertionInfoE(ptr noundef nonnull align 8 dereferenceable(24) @_ZZN4node6crypto13EnginePointer5resetEP9engine_stbE4args_0) #25
  call void @abort() #27
  unreachable

_ZN4node6crypto13EnginePointerD2Ev.exit:          ; preds = %entry, %cleanup, %do.body.i.i, %do.body10.i.i
  %retval.05 = phi i1 [ %tobool.not, %cleanup ], [ %tobool.not, %do.body.i.i ], [ %tobool.not, %do.body10.i.i ], [ false, %entry ]
  store ptr null, ptr %engine, align 8
  %finish_on_exit26.i.i = getelementptr inbounds i8, ptr %engine, i64 8
  store i8 0, ptr %finish_on_exit26.i.i, align 8
  call void @ERR_clear_error() #25
  ret i1 %retval.05
}